target datalayout = "e-m:e-p270:32:32-p271:32:32-p272:64:64-i64:64-i128:128-f80:128-n8:16:32:64-S128"
target triple = "x86_64-pc-linux-gnu"

%struct.DdManager = type { %struct.DdNode, ptr, ptr, ptr, ptr, ptr, ptr, ptr, i32, i32, double, double, double, i32, i32, i32, i32, i32, i32, ptr, ptr, %struct.DdSubtable, i32, i32, i32, i32, i32, i32, i32, double, i32, i32, i32, ptr, i64, double, i32, ptr, ptr, ptr, ptr, ptr, ptr, ptr, i32, ptr, ptr, ptr, ptr, ptr, ptr, i32, i32, i32, double, i32, i32, i32, i32, double, double, i32, i32, i32, i32, i32, i32, i32, i32, i32, ptr, ptr, i32, i32, i32, i32, i32, i32, ptr, ptr, ptr, ptr, ptr, ptr, ptr, ptr, i32, i64, i64, i64, i32, i64, i64, double, double, double, double, double, double, i32, ptr, ptr, i64 }
%struct.DdNode = type { i32, i32, ptr, %union.anon, i64 }
%union.anon = type { %struct.DdChildren }
%struct.DdChildren = type { ptr, ptr }
%struct.DdSubtable = type { ptr, i32, i32, i32, i32, i32, i32, i32, i32, i32, i32, i32 }
%struct.DdCache = type { ptr, ptr, i64, ptr, i32 }

; Function Attrs: nounwind uwtable
define ptr @cuddCacheLookup2Zdd(ptr noundef %0, ptr noundef %1, ptr noundef %2, ptr noundef %3) #0 {
  %5 = alloca ptr, align 8
  %6 = alloca ptr, align 8
  %7 = alloca ptr, align 8
  %8 = alloca ptr, align 8
  %9 = alloca ptr, align 8
  %10 = alloca i32, align 4
  %11 = alloca ptr, align 8
  %12 = alloca ptr, align 8
  %13 = alloca ptr, align 8
  %14 = alloca i32, align 4
  store ptr %0, ptr %6, align 8, !tbaa !3
  store ptr %1, ptr %7, align 8, !tbaa !58
  store ptr %2, ptr %8, align 8, !tbaa !52
  store ptr %3, ptr %9, align 8, !tbaa !52
  call void @llvm.lifetime.start.p0(i64 4, ptr %10) #6
  call void @llvm.lifetime.start.p0(i64 8, ptr %11) #6
  call void @llvm.lifetime.start.p0(i64 8, ptr %12) #6
  call void @llvm.lifetime.start.p0(i64 8, ptr %13) #6
  %15 = load ptr, ptr %6, align 8, !tbaa !3
  %16 = getelementptr inbounds nuw %struct.DdManager, ptr %15, i32 0, i32 7
  %17 = load ptr, ptr %16, align 8, !tbaa !31
  store ptr %17, ptr %12, align 8, !tbaa !54
  %18 = load ptr, ptr %8, align 8, !tbaa !52
  %19 = ptrtoint ptr %18 to i64
  %20 = and i64 %19, -2
  %21 = inttoptr i64 %20 to ptr
  %22 = getelementptr inbounds nuw %struct.DdNode, ptr %21, i32 0, i32 4
  %23 = load i64, ptr %22, align 8, !tbaa !53
  %24 = shl i64 %23, 1
  %25 = load ptr, ptr %8, align 8, !tbaa !52
  %26 = ptrtoint ptr %25 to i64
  %27 = and i64 %26, 1
  %28 = trunc i64 %27 to i32
  %29 = sext i32 %28 to i64
  %30 = or i64 %24, %29
  %31 = trunc i64 %30 to i32
  %32 = load ptr, ptr %7, align 8, !tbaa !58
  %33 = ptrtoint ptr %32 to i64
  %34 = trunc i64 %33 to i32
  %35 = add i32 %31, %34
  %36 = mul i32 %35, 12582917
  %37 = load ptr, ptr %9, align 8, !tbaa !52
  %38 = ptrtoint ptr %37 to i64
  %39 = and i64 %38, -2
  %40 = inttoptr i64 %39 to ptr
  %41 = getelementptr inbounds nuw %struct.DdNode, ptr %40, i32 0, i32 4
  %42 = load i64, ptr %41, align 8, !tbaa !53
  %43 = shl i64 %42, 1
  %44 = load ptr, ptr %9, align 8, !tbaa !52
  %45 = ptrtoint ptr %44 to i64
  %46 = and i64 %45, 1
  %47 = trunc i64 %46 to i32
  %48 = sext i32 %47 to i64
  %49 = or i64 %43, %48
  %50 = trunc i64 %49 to i32
  %51 = add i32 %36, %50
  %52 = mul i32 %51, 4256249
  %53 = load ptr, ptr %6, align 8, !tbaa !3
  %54 = getelementptr inbounds nuw %struct.DdManager, ptr %53, i32 0, i32 9
  %55 = load i32, ptr %54, align 4, !tbaa !34
  %56 = lshr i32 %52, %55
  store i32 %56, ptr %10, align 4, !tbaa !8
  %57 = load ptr, ptr %12, align 8, !tbaa !54
  %58 = load i32, ptr %10, align 4, !tbaa !8
  %59 = sext i32 %58 to i64
  %60 = getelementptr inbounds %struct.DdCache, ptr %57, i64 %59
  store ptr %60, ptr %11, align 8, !tbaa !54
  %61 = load ptr, ptr %11, align 8, !tbaa !54
  %62 = getelementptr inbounds nuw %struct.DdCache, ptr %61, i32 0, i32 3
  %63 = load ptr, ptr %62, align 8, !tbaa !48
  %64 = icmp ne ptr %63, null
  br i1 %64, label %65, label %106

65:                                               ; preds = %4
  %66 = load ptr, ptr %11, align 8, !tbaa !54
  %67 = getelementptr inbounds nuw %struct.DdCache, ptr %66, i32 0, i32 0
  %68 = load ptr, ptr %67, align 8, !tbaa !55
  %69 = load ptr, ptr %8, align 8, !tbaa !52
  %70 = icmp eq ptr %68, %69
  br i1 %70, label %71, label %106

71:                                               ; preds = %65
  %72 = load ptr, ptr %11, align 8, !tbaa !54
  %73 = getelementptr inbounds nuw %struct.DdCache, ptr %72, i32 0, i32 1
  %74 = load ptr, ptr %73, align 8, !tbaa !56
  %75 = load ptr, ptr %9, align 8, !tbaa !52
  %76 = icmp eq ptr %74, %75
  br i1 %76, label %77, label %106

77:                                               ; preds = %71
  %78 = load ptr, ptr %11, align 8, !tbaa !54
  %79 = getelementptr inbounds nuw %struct.DdCache, ptr %78, i32 0, i32 2
  %80 = load i64, ptr %79, align 8, !tbaa !46
  %81 = load ptr, ptr %7, align 8, !tbaa !58
  %82 = ptrtoint ptr %81 to i64
  %83 = icmp eq i64 %80, %82
  br i1 %83, label %84, label %106

84:                                               ; preds = %77
  %85 = load ptr, ptr %11, align 8, !tbaa !54
  %86 = getelementptr inbounds nuw %struct.DdCache, ptr %85, i32 0, i32 3
  %87 = load ptr, ptr %86, align 8, !tbaa !48
  %88 = ptrtoint ptr %87 to i64
  %89 = and i64 %88, -2
  %90 = inttoptr i64 %89 to ptr
  store ptr %90, ptr %13, align 8, !tbaa !52
  %91 = load ptr, ptr %6, align 8, !tbaa !3
  %92 = getelementptr inbounds nuw %struct.DdManager, ptr %91, i32 0, i32 11
  %93 = load double, ptr %92, align 8, !tbaa !39
  %94 = fadd double %93, 1.000000e+00
  store double %94, ptr %92, align 8, !tbaa !39
  %95 = load ptr, ptr %13, align 8, !tbaa !52
  %96 = getelementptr inbounds nuw %struct.DdNode, ptr %95, i32 0, i32 1
  %97 = load i32, ptr %96, align 4, !tbaa !59
  %98 = icmp eq i32 %97, 0
  br i1 %98, label %99, label %102

99:                                               ; preds = %84
  %100 = load ptr, ptr %6, align 8, !tbaa !3
  %101 = load ptr, ptr %13, align 8, !tbaa !52
  call void @cuddReclaimZdd(ptr noundef %100, ptr noundef %101)
  br label %102

102:                                              ; preds = %99, %84
  %103 = load ptr, ptr %11, align 8, !tbaa !54
  %104 = getelementptr inbounds nuw %struct.DdCache, ptr %103, i32 0, i32 3
  %105 = load ptr, ptr %104, align 8, !tbaa !48
  store ptr %105, ptr %5, align 8
  store i32 1, ptr %14, align 4
  br label %130

106:                                              ; preds = %77, %71, %65, %4
  %107 = load ptr, ptr %6, align 8, !tbaa !3
  %108 = getelementptr inbounds nuw %struct.DdManager, ptr %107, i32 0, i32 10
  %109 = load double, ptr %108, align 8, !tbaa !38
  %110 = fadd double %109, 1.000000e+00
  store double %110, ptr %108, align 8, !tbaa !38
  %111 = load ptr, ptr %6, align 8, !tbaa !3
  %112 = getelementptr inbounds nuw %struct.DdManager, ptr %111, i32 0, i32 13
  %113 = load i32, ptr %112, align 8, !tbaa !36
  %114 = icmp sge i32 %113, 0
  br i1 %114, label %115, label %129

115:                                              ; preds = %106
  %116 = load ptr, ptr %6, align 8, !tbaa !3
  %117 = getelementptr inbounds nuw %struct.DdManager, ptr %116, i32 0, i32 11
  %118 = load double, ptr %117, align 8, !tbaa !39
  %119 = load ptr, ptr %6, align 8, !tbaa !3
  %120 = getelementptr inbounds nuw %struct.DdManager, ptr %119, i32 0, i32 10
  %121 = load double, ptr %120, align 8, !tbaa !38
  %122 = load ptr, ptr %6, align 8, !tbaa !3
  %123 = getelementptr inbounds nuw %struct.DdManager, ptr %122, i32 0, i32 12
  %124 = load double, ptr %123, align 8, !tbaa !37
  %125 = fmul double %121, %124
  %126 = fcmp ogt double %118, %125
  br i1 %126, label %127, label %129

127:                                              ; preds = %115
  %128 = load ptr, ptr %6, align 8, !tbaa !3
  call void @cuddCacheResize(ptr noundef %128)
  br label %129

129:                                              ; preds = %127, %115, %106
  store ptr null, ptr %5, align 8
  store i32 1, ptr %14, align 4
  br label %130

130:                                              ; preds = %129, %102
  call void @llvm.lifetime.end.p0(i64 8, ptr %13) #6
  call void @llvm.lifetime.end.p0(i64 8, ptr %12) #6
  call void @llvm.lifetime.end.p0(i64 8, ptr %11) #6
  call void @llvm.lifetime.end.p0(i64 4, ptr %10) #6
  %131 = load ptr, ptr %5, align 8
  ret ptr %131
}